target datalayout = "e-m:e-p270:32:32-p271:32:32-p272:64:64-i64:64-i128:128-f80:128-n8:16:32:64-S128"
target triple = "x86_64-pc-linux-gnu"

%struct.elist = type { ptr, i64 }
%struct.Agobj_s = type { %struct.Agtag_s, ptr }
%struct.Agtag_s = type { i32, i64 }
%struct.Agrec_s = type { ptr, ptr }
%struct.boxf = type { %struct.pointf_s, %struct.pointf_s }
%struct.pointf_s = type { double, double }
%struct.Agnodeinfo_t = type { %struct.Agrec_s, ptr, ptr, %struct.pointf_s, double, double, %struct.boxf, double, double, double, double, double, ptr, ptr, ptr, i8, i8, i8, i8, i32, i32, i32, ptr, double, i8, i8, ptr, ptr, i8, i64, i8, i8, i8, ptr, ptr, %struct.elist, %struct.elist, %struct.elist, %struct.elist, %struct.elist, ptr, i32, ptr, i32, i32, double, %struct.elist, %struct.elist, %struct.elist, %struct.elist, ptr, i32, i32, i32, [1 x double] }
%struct.Agedge_s = type { %struct.Agobj_s, %struct.dtlink_s_, %struct.dtlink_s_, ptr }
%struct.dtlink_s_ = type { ptr, %union.anon }
%union.anon = type { ptr }

; Function Attrs: nounwind uwtable
define internal i32 @dfs_range(ptr noundef %0, ptr noundef %1, i32 noundef %2) #0 {
  %4 = alloca i32, align 4
  %5 = alloca ptr, align 8
  %6 = alloca ptr, align 8
  %7 = alloca i32, align 4
  %8 = alloca ptr, align 8
  %9 = alloca i32, align 4
  %10 = alloca i32, align 4
  %11 = alloca i32, align 4
  store ptr %0, ptr %5, align 8, !tbaa !48
  store ptr %1, ptr %6, align 8, !tbaa !19
  store i32 %2, ptr %7, align 4, !tbaa !8
  call void @llvm.lifetime.start.p0(i64 8, ptr %8) #14
  call void @llvm.lifetime.start.p0(i64 4, ptr %9) #14
  call void @llvm.lifetime.start.p0(i64 4, ptr %10) #14
  %12 = load ptr, ptr %5, align 8, !tbaa !48
  %13 = getelementptr inbounds nuw %struct.Agobj_s, ptr %12, i32 0, i32 1
  %14 = load ptr, ptr %13, align 8, !tbaa !27
  %15 = getelementptr inbounds nuw %struct.Agnodeinfo_t, ptr %14, i32 0, i32 50
  %16 = load ptr, ptr %15, align 8, !tbaa !92
  %17 = load ptr, ptr %6, align 8, !tbaa !19
  %18 = icmp eq ptr %16, %17
  br i1 %18, label %19, label %34

19:                                               ; preds = %3
  %20 = load ptr, ptr %5, align 8, !tbaa !48
  %21 = getelementptr inbounds nuw %struct.Agobj_s, ptr %20, i32 0, i32 1
  %22 = load ptr, ptr %21, align 8, !tbaa !27
  %23 = getelementptr inbounds nuw %struct.Agnodeinfo_t, ptr %22, i32 0, i32 51
  %24 = load i32, ptr %23, align 8, !tbaa !108
  %25 = load i32, ptr %7, align 4, !tbaa !8
  %26 = icmp eq i32 %24, %25
  br i1 %26, label %27, label %34

27:                                               ; preds = %19
  %28 = load ptr, ptr %5, align 8, !tbaa !48
  %29 = getelementptr inbounds nuw %struct.Agobj_s, ptr %28, i32 0, i32 1
  %30 = load ptr, ptr %29, align 8, !tbaa !27
  %31 = getelementptr inbounds nuw %struct.Agnodeinfo_t, ptr %30, i32 0, i32 52
  %32 = load i32, ptr %31, align 4, !tbaa !107
  %33 = add nsw i32 %32, 1
  store i32 %33, ptr %4, align 4
  store i32 1, ptr %11, align 4
  br label %131

34:                                               ; preds = %19, %3
  %35 = load i32, ptr %7, align 4, !tbaa !8
  store i32 %35, ptr %10, align 4, !tbaa !8
  %36 = load ptr, ptr %6, align 8, !tbaa !19
  %37 = load ptr, ptr %5, align 8, !tbaa !48
  %38 = getelementptr inbounds nuw %struct.Agobj_s, ptr %37, i32 0, i32 1
  %39 = load ptr, ptr %38, align 8, !tbaa !27
  %40 = getelementptr inbounds nuw %struct.Agnodeinfo_t, ptr %39, i32 0, i32 50
  store ptr %36, ptr %40, align 8, !tbaa !92
  %41 = load i32, ptr %7, align 4, !tbaa !8
  %42 = load ptr, ptr %5, align 8, !tbaa !48
  %43 = getelementptr inbounds nuw %struct.Agobj_s, ptr %42, i32 0, i32 1
  %44 = load ptr, ptr %43, align 8, !tbaa !27
  %45 = getelementptr inbounds nuw %struct.Agnodeinfo_t, ptr %44, i32 0, i32 51
  store i32 %41, ptr %45, align 8, !tbaa !108
  store i32 0, ptr %9, align 4, !tbaa !8
  br label %46

46:                                               ; preds = %81, %34
  %47 = load ptr, ptr %5, align 8, !tbaa !48
  %48 = getelementptr inbounds nuw %struct.Agobj_s, ptr %47, i32 0, i32 1
  %49 = load ptr, ptr %48, align 8, !tbaa !27
  %50 = getelementptr inbounds nuw %struct.Agnodeinfo_t, ptr %49, i32 0, i32 49
  %51 = getelementptr inbounds nuw %struct.elist, ptr %50, i32 0, i32 0
  %52 = load ptr, ptr %51, align 8, !tbaa !82
  %53 = load i32, ptr %9, align 4, !tbaa !8
  %54 = sext i32 %53 to i64
  %55 = getelementptr inbounds ptr, ptr %52, i64 %54
  %56 = load ptr, ptr %55, align 8, !tbaa !19
  store ptr %56, ptr %8, align 8, !tbaa !19
  %57 = icmp ne ptr %56, null
  br i1 %57, label %58, label %84

58:                                               ; preds = %46
  %59 = load ptr, ptr %8, align 8, !tbaa !19
  %60 = load ptr, ptr %6, align 8, !tbaa !19
  %61 = icmp ne ptr %59, %60
  br i1 %61, label %62, label %80

62:                                               ; preds = %58
  %63 = load ptr, ptr %8, align 8, !tbaa !19
  %64 = getelementptr inbounds nuw %struct.Agobj_s, ptr %63, i32 0, i32 0
  %65 = load i32, ptr %64, align 8
  %66 = and i32 %65, 3
  %67 = icmp eq i32 %66, 2
  br i1 %67, label %68, label %70

68:                                               ; preds = %62
  %69 = load ptr, ptr %8, align 8, !tbaa !19
  br label %73

70:                                               ; preds = %62
  %71 = load ptr, ptr %8, align 8, !tbaa !19
  %72 = getelementptr inbounds %struct.Agedge_s, ptr %71, i64 -1
  br label %73

73:                                               ; preds = %70, %68
  %74 = phi ptr [ %69, %68 ], [ %72, %70 ]
  %75 = getelementptr inbounds nuw %struct.Agedge_s, ptr %74, i32 0, i32 3
  %76 = load ptr, ptr %75, align 8, !tbaa !72
  %77 = load ptr, ptr %8, align 8, !tbaa !19
  %78 = load i32, ptr %10, align 4, !tbaa !8
  %79 = call i32 @dfs_range(ptr noundef %76, ptr noundef %77, i32 noundef %78)
  store i32 %79, ptr %10, align 4, !tbaa !8
  br label %80

80:                                               ; preds = %73, %58
  br label %81

81:                                               ; preds = %80
  %82 = load i32, ptr %9, align 4, !tbaa !8
  %83 = add nsw i32 %82, 1
  store i32 %83, ptr %9, align 4, !tbaa !8
  br label %46, !llvm.loop !168

84:                                               ; preds = %46
  store i32 0, ptr %9, align 4, !tbaa !8
  br label %85

85:                                               ; preds = %120, %84
  %86 = load ptr, ptr %5, align 8, !tbaa !48
  %87 = getelementptr inbounds nuw %struct.Agobj_s, ptr %86, i32 0, i32 1
  %88 = load ptr, ptr %87, align 8, !tbaa !27
  %89 = getelementptr inbounds nuw %struct.Agnodeinfo_t, ptr %88, i32 0, i32 48
  %90 = getelementptr inbounds nuw %struct.elist, ptr %89, i32 0, i32 0
  %91 = load ptr, ptr %90, align 8, !tbaa !79
  %92 = load i32, ptr %9, align 4, !tbaa !8
  %93 = sext i32 %92 to i64
  %94 = getelementptr inbounds ptr, ptr %91, i64 %93
  %95 = load ptr, ptr %94, align 8, !tbaa !19
  store ptr %95, ptr %8, align 8, !tbaa !19
  %96 = icmp ne ptr %95, null
  br i1 %96, label %97, label %123

97:                                               ; preds = %85
  %98 = load ptr, ptr %8, align 8, !tbaa !19
  %99 = load ptr, ptr %6, align 8, !tbaa !19
  %100 = icmp ne ptr %98, %99
  br i1 %100, label %101, label %119

101:                                              ; preds = %97
  %102 = load ptr, ptr %8, align 8, !tbaa !19
  %103 = getelementptr inbounds nuw %struct.Agobj_s, ptr %102, i32 0, i32 0
  %104 = load i32, ptr %103, align 8
  %105 = and i32 %104, 3
  %106 = icmp eq i32 %105, 3
  br i1 %106, label %107, label %109

107:                                              ; preds = %101
  %108 = load ptr, ptr %8, align 8, !tbaa !19
  br label %112

109:                                              ; preds = %101
  %110 = load ptr, ptr %8, align 8, !tbaa !19
  %111 = getelementptr inbounds %struct.Agedge_s, ptr %110, i64 1
  br label %112

112:                                              ; preds = %109, %107
  %113 = phi ptr [ %108, %107 ], [ %111, %109 ]
  %114 = getelementptr inbounds nuw %struct.Agedge_s, ptr %113, i32 0, i32 3
  %115 = load ptr, ptr %114, align 8, !tbaa !72
  %116 = load ptr, ptr %8, align 8, !tbaa !19
  %117 = load i32, ptr %10, align 4, !tbaa !8
  %118 = call i32 @dfs_range(ptr noundef %115, ptr noundef %116, i32 noundef %117)
  store i32 %118, ptr %10, align 4, !tbaa !8
  br label %119

119:                                              ; preds = %112, %97
  br label %120

120:                                              ; preds = %119
  %121 = load i32, ptr %9, align 4, !tbaa !8
  %122 = add nsw i32 %121, 1
  store i32 %122, ptr %9, align 4, !tbaa !8
  br label %85, !llvm.loop !169

123:                                              ; preds = %85
  %124 = load i32, ptr %10, align 4, !tbaa !8
  %125 = load ptr, ptr %5, align 8, !tbaa !48
  %126 = getelementptr inbounds nuw %struct.Agobj_s, ptr %125, i32 0, i32 1
  %127 = load ptr, ptr %126, align 8, !tbaa !27
  %128 = getelementptr inbounds nuw %struct.Agnodeinfo_t, ptr %127, i32 0, i32 52
  store i32 %124, ptr %128, align 4, !tbaa !107
  %129 = load i32, ptr %10, align 4, !tbaa !8
  %130 = add nsw i32 %129, 1
  store i32 %130, ptr %4, align 4
  store i32 1, ptr %11, align 4
  br label %131

131:                                              ; preds = %123, %27
  call void @llvm.lifetime.end.p0(i64 4, ptr %10) #14
  call void @llvm.lifetime.end.p0(i64 4, ptr %9) #14
  call void @llvm.lifetime.end.p0(i64 8, ptr %8) #14
  %132 = load i32, ptr %4, align 4
  ret i32 %132
}