; Function Attrs: nofree nosync nounwind memory(readwrite, inaccessiblemem: none) uwtable
define internal fastcc range(i32 -2147483647, -2147483648) i32 @dfs_range(ptr noundef readonly captures(none) %0, ptr noundef %1, i32 noundef %2) unnamed_addr #11 {
  %4 = getelementptr inbounds nuw i8, ptr %0, i64 16
  %5 = load ptr, ptr %4, align 8, !tbaa !6
  %6 = getelementptr inbounds nuw i8, ptr %5, i64 440
  %7 = load ptr, ptr %6, align 8, !tbaa !74
  %8 = icmp eq ptr %7, %1
  br i1 %8, label %9, label %16

9:                                                ; preds = %3
  %10 = getelementptr inbounds nuw i8, ptr %5, i64 448
  %11 = load i32, ptr %10, align 8, !tbaa !111
  %12 = icmp eq i32 %11, %2
  br i1 %12, label %13, label %16

13:                                               ; preds = %9
  %14 = getelementptr inbounds nuw i8, ptr %5, i64 452
  %15 = load i32, ptr %14, align 4, !tbaa !110
  br label %58

16:                                               ; preds = %9, %3
  store ptr %1, ptr %6, align 8, !tbaa !74
  %17 = getelementptr inbounds nuw i8, ptr %5, i64 448
  store i32 %2, ptr %17, align 8, !tbaa !111
  %18 = getelementptr inbounds nuw i8, ptr %5, i64 424
  %19 = load ptr, ptr %18, align 8, !tbaa !66
  %20 = load ptr, ptr %19, align 8, !tbaa !30
  %.not42 = icmp eq ptr %20, null
  br i1 %.not42, label %.preheader, label %.lr.ph

.preheader:                                       ; preds = %35, %16
  %21 = phi ptr [ %5, %16 ], [ %36, %35 ]
  %.0.lcssa = phi i32 [ %2, %16 ], [ %.1, %35 ]
  %22 = getelementptr inbounds nuw i8, ptr %21, i64 408
  %23 = load ptr, ptr %22, align 8, !tbaa !63
  %24 = load ptr, ptr %23, align 8, !tbaa !30
  %.not3845 = icmp eq ptr %24, null
  br i1 %.not3845, label %._crit_edge, label %.lr.ph48

.lr.ph:                                           ; preds = %16, %35
  %25 = phi ptr [ %36, %35 ], [ %5, %16 ]
  %indvars.iv = phi i64 [ %indvars.iv.next, %35 ], [ 0, %16 ]
  %26 = phi ptr [ %40, %35 ], [ %20, %16 ]
  %.044 = phi i32 [ %.1, %35 ], [ %2, %16 ]
  %.not40 = icmp eq ptr %26, %1
  br i1 %.not40, label %35, label %27

27:                                               ; preds = %.lr.ph
  %28 = load i32, ptr %26, align 8
  %29 = and i32 %28, 3
  %30 = icmp eq i32 %29, 2
  %.idx41 = select i1 %30, i64 0, i64 -64
  %31 = getelementptr inbounds i8, ptr %26, i64 %.idx41
  %32 = getelementptr inbounds nuw i8, ptr %31, i64 56
  %33 = load ptr, ptr %32, align 8, !tbaa !56
  %34 = tail call fastcc i32 @dfs_range(ptr noundef %33, ptr noundef nonnull %26, i32 noundef %.044)
  %.pre = load ptr, ptr %4, align 8, !tbaa !6
  br label %35

35:                                               ; preds = %.lr.ph, %27
  %36 = phi ptr [ %.pre, %27 ], [ %25, %.lr.ph ]
  %.1 = phi i32 [ %34, %27 ], [ %.044, %.lr.ph ]
  %indvars.iv.next = add nuw nsw i64 %indvars.iv, 1
  %37 = getelementptr inbounds nuw i8, ptr %36, i64 424
  %38 = load ptr, ptr %37, align 8, !tbaa !66
  %39 = getelementptr inbounds nuw ptr, ptr %38, i64 %indvars.iv.next
  %40 = load ptr, ptr %39, align 8, !tbaa !30
  %.not = icmp eq ptr %40, null
  br i1 %.not, label %.preheader, label %.lr.ph, !llvm.loop !148

.lr.ph48:                                         ; preds = %.preheader, %51
  %41 = phi ptr [ %52, %51 ], [ %21, %.preheader ]
  %indvars.iv53 = phi i64 [ %indvars.iv.next54, %51 ], [ 0, %.preheader ]
  %42 = phi ptr [ %56, %51 ], [ %24, %.preheader ]
  %.247 = phi i32 [ %.3, %51 ], [ %.0.lcssa, %.preheader ]
  %.not39 = icmp eq ptr %42, %1
  br i1 %.not39, label %51, label %43

43:                                               ; preds = %.lr.ph48
  %44 = load i32, ptr %42, align 8
  %45 = and i32 %44, 3
  %46 = icmp eq i32 %45, 3
  %.idx = select i1 %46, i64 0, i64 64
  %47 = getelementptr inbounds nuw i8, ptr %42, i64 %.idx
  %48 = getelementptr inbounds nuw i8, ptr %47, i64 56
  %49 = load ptr, ptr %48, align 8, !tbaa !56
  %50 = tail call fastcc i32 @dfs_range(ptr noundef %49, ptr noundef nonnull %42, i32 noundef %.247)
  %.pre56 = load ptr, ptr %4, align 8, !tbaa !6
  br label %51

51:                                               ; preds = %.lr.ph48, %43
  %52 = phi ptr [ %.pre56, %43 ], [ %41, %.lr.ph48 ]
  %.3 = phi i32 [ %50, %43 ], [ %.247, %.lr.ph48 ]
  %indvars.iv.next54 = add nuw nsw i64 %indvars.iv53, 1
  %53 = getelementptr inbounds nuw i8, ptr %52, i64 408
  %54 = load ptr, ptr %53, align 8, !tbaa !63
  %55 = getelementptr inbounds nuw ptr, ptr %54, i64 %indvars.iv.next54
  %56 = load ptr, ptr %55, align 8, !tbaa !30
  %.not38 = icmp eq ptr %56, null
  br i1 %.not38, label %._crit_edge, label %.lr.ph48, !llvm.loop !149

._crit_edge:                                      ; preds = %51, %.preheader
  %.2.lcssa = phi i32 [ %.0.lcssa, %.preheader ], [ %.3, %51 ]
  %.lcssa = phi ptr [ %21, %.preheader ], [ %52, %51 ]
  %57 = getelementptr inbounds nuw i8, ptr %.lcssa, i64 452
  store i32 %.2.lcssa, ptr %57, align 4, !tbaa !110
  br label %58

58:                                               ; preds = %._crit_edge, %13
  %.035.in = phi i32 [ %15, %13 ], [ %.2.lcssa, %._crit_edge ]
  %.035 = add nsw i32 %.035.in, 1
  ret i32 %.035
}